target datalayout = "e-m:e-p270:32:32-p271:32:32-p272:64:64-i64:64-i128:128-f80:128-n8:16:32:64-S128"
target triple = "x86_64-pc-linux-gnu"

%"class.absl::lts_20240116::Time" = type { %"class.absl::lts_20240116::Duration" }
%"class.absl::lts_20240116::Duration" = type { %"class.absl::lts_20240116::Duration::HiRep", i32 }
%"class.absl::lts_20240116::Duration::HiRep" = type { i32, i32 }
%"class.std::unique_ptr" = type { %"struct.std::__uniq_ptr_data" }
%"struct.std::__uniq_ptr_data" = type { %"class.std::__uniq_ptr_impl" }
%"class.std::__uniq_ptr_impl" = type { %"class.std::tuple" }
%"class.std::tuple" = type { %"struct.std::_Tuple_impl" }
%"struct.std::_Tuple_impl" = type { %"struct.std::_Head_base.19" }
%"struct.std::_Head_base.19" = type { ptr }
%"struct.ceres::IterationSummary" = type { i32, i8, i8, i8, double, double, double, double, double, double, double, double, double, i32, i32, i32, i32, double, double, double }
%"class.ceres::internal::TrustRegionMinimizer" = type <{ %"class.ceres::internal::Minimizer", %"struct.ceres::internal::Minimizer::Options", ptr, ptr, ptr, ptr, ptr, %"class.std::unique_ptr", i8, i8, i8, [5 x i8], %"struct.ceres::IterationSummary", i32, i32, i32, [4 x i8], %"class.Eigen::Matrix", %"class.Eigen::Matrix", %"class.Eigen::Matrix", %"class.Eigen::Matrix", %"class.Eigen::Matrix", %"class.Eigen::Matrix", %"class.Eigen::Matrix", %"class.Eigen::Matrix", %"class.Eigen::Matrix", %"class.Eigen::Matrix", %"class.Eigen::Matrix", double, double, double, double, %"class.absl::lts_20240116::Time", %"class.absl::lts_20240116::Time", i32, [4 x i8] }>
%"class.ceres::internal::Minimizer" = type { ptr }
%"struct.ceres::internal::Minimizer::Options" = type { i32, double, i32, ptr, i32, double, double, double, double, double, i8, i8, i32, %"class.std::vector", i32, %"class.std::__cxx11::basic_string", i32, double, i32, i32, i32, i32, i8, i32, double, double, double, double, i32, i32, double, double, double, i8, i8, %"class.std::vector.4", %"class.std::shared_ptr", %"class.std::shared_ptr.9", %"class.std::shared_ptr.12", %"class.std::shared_ptr.15" }
%"class.std::vector" = type { %"struct.std::_Vector_base" }
%"struct.std::_Vector_base" = type { %"struct.std::_Vector_base<int, std::allocator<int>>::_Vector_impl" }
%"struct.std::_Vector_base<int, std::allocator<int>>::_Vector_impl" = type { %"struct.std::_Vector_base<int, std::allocator<int>>::_Vector_impl_data" }
%"struct.std::_Vector_base<int, std::allocator<int>>::_Vector_impl_data" = type { ptr, ptr, ptr }
%"class.std::__cxx11::basic_string" = type { %"struct.std::__cxx11::basic_string<char>::_Alloc_hider", i64, %union.anon }
%"struct.std::__cxx11::basic_string<char>::_Alloc_hider" = type { ptr }
%union.anon = type { i64, [8 x i8] }
%"class.std::vector.4" = type { %"struct.std::_Vector_base.5" }
%"struct.std::_Vector_base.5" = type { %"struct.std::_Vector_base<ceres::IterationCallback *, std::allocator<ceres::IterationCallback *>>::_Vector_impl" }
%"struct.std::_Vector_base<ceres::IterationCallback *, std::allocator<ceres::IterationCallback *>>::_Vector_impl" = type { %"struct.std::_Vector_base<ceres::IterationCallback *, std::allocator<ceres::IterationCallback *>>::_Vector_impl_data" }
%"struct.std::_Vector_base<ceres::IterationCallback *, std::allocator<ceres::IterationCallback *>>::_Vector_impl_data" = type { ptr, ptr, ptr }
%"class.std::shared_ptr" = type { %"class.std::__shared_ptr" }
%"class.std::__shared_ptr" = type { ptr, %"class.std::__shared_count" }
%"class.std::__shared_count" = type { ptr }
%"class.std::shared_ptr.9" = type { %"class.std::__shared_ptr.10" }
%"class.std::__shared_ptr.10" = type { ptr, %"class.std::__shared_count" }
%"class.std::shared_ptr.12" = type { %"class.std::__shared_ptr.13" }
%"class.std::__shared_ptr.13" = type { ptr, %"class.std::__shared_count" }
%"class.std::shared_ptr.15" = type { %"class.std::__shared_ptr.16" }
%"class.std::__shared_ptr.16" = type { ptr, %"class.std::__shared_count" }
%"class.Eigen::Matrix" = type { %"class.Eigen::PlainObjectBase" }
%"class.Eigen::PlainObjectBase" = type { %"class.Eigen::DenseStorage" }
%"class.Eigen::DenseStorage" = type { ptr, i64 }

; Function Attrs: mustprogress nounwind uwtable
define linkonce_odr hidden noundef nonnull align 8 dereferenceable(8) ptr @_ZNSt10_Head_baseILm0EPN5ceres8internal24TrustRegionStepEvaluatorELb0EE7_M_headERKS4_(ptr noundef nonnull align 8 dereferenceable(8) %0) #1 comdat align 2 {
  %2 = alloca ptr, align 8
  store ptr %0, ptr %2, align 8, !tbaa !393
  %3 = load ptr, ptr %2, align 8, !tbaa !393
  %4 = getelementptr inbounds nuw %"struct.std::_Head_base.19", ptr %3, i32 0, i32 0
  ret ptr %4
}

; Function Attrs: mustprogress nounwind uwtable
define linkonce_odr hidden noundef nonnull align 8 dereferenceable(8) ptr @_ZNSt11_Tuple_implILm0EJPN5ceres8internal24TrustRegionStepEvaluatorESt14default_deleteIS2_EEE7_M_headERKS6_(ptr noundef nonnull align 8 dereferenceable(8) %0) #1 comdat align 2 {
  %2 = alloca ptr, align 8
  store ptr %0, ptr %2, align 8, !tbaa !391
  %3 = load ptr, ptr %2, align 8, !tbaa !391
  %4 = call noundef nonnull align 8 dereferenceable(8) ptr @_ZNSt10_Head_baseILm0EPN5ceres8internal24TrustRegionStepEvaluatorELb0EE7_M_headERKS4_(ptr noundef nonnull align 8 dereferenceable(8) %3) #6
  ret ptr %4
}

; Function Attrs: mustprogress nounwind uwtable
define linkonce_odr hidden noundef nonnull align 8 dereferenceable(8) ptr @_ZSt12__get_helperILm0EPN5ceres8internal24TrustRegionStepEvaluatorEJSt14default_deleteIS2_EEERKT0_RKSt11_Tuple_implIXT_EJS6_DpT1_EE(ptr noundef nonnull align 8 dereferenceable(8) %0) #1 comdat {
  %2 = alloca ptr, align 8
  store ptr %0, ptr %2, align 8, !tbaa !391
  %3 = load ptr, ptr %2, align 8, !tbaa !391
  %4 = call noundef nonnull align 8 dereferenceable(8) ptr @_ZNSt11_Tuple_implILm0EJPN5ceres8internal24TrustRegionStepEvaluatorESt14default_deleteIS2_EEE7_M_headERKS6_(ptr noundef nonnull align 8 dereferenceable(8) %3) #6
  ret ptr %4
}

; Function Attrs: mustprogress nounwind uwtable
define linkonce_odr hidden noundef nonnull align 8 dereferenceable(8) ptr @_ZSt3getILm0EJPN5ceres8internal24TrustRegionStepEvaluatorESt14default_deleteIS2_EEERKNSt13tuple_elementIXT_ESt5tupleIJDpT0_EEE4typeERKSA_(ptr noundef nonnull align 8 dereferenceable(8) %0) #1 comdat {
  %2 = alloca ptr, align 8
  store ptr %0, ptr %2, align 8, !tbaa !389
  %3 = load ptr, ptr %2, align 8, !tbaa !389
  %4 = call noundef nonnull align 8 dereferenceable(8) ptr @_ZSt12__get_helperILm0EPN5ceres8internal24TrustRegionStepEvaluatorEJSt14default_deleteIS2_EEERKT0_RKSt11_Tuple_implIXT_EJS6_DpT1_EE(ptr noundef nonnull align 8 dereferenceable(8) %3) #6
  ret ptr %4
}

; Function Attrs: mustprogress nounwind uwtable
define linkonce_odr hidden noundef ptr @_ZNKSt15__uniq_ptr_implIN5ceres8internal24TrustRegionStepEvaluatorESt14default_deleteIS2_EE6_M_ptrEv(ptr noundef nonnull align 8 dereferenceable(8) %0) #1 comdat align 2 {
  %2 = alloca ptr, align 8
  store ptr %0, ptr %2, align 8, !tbaa !385
  %3 = load ptr, ptr %2, align 8
  %4 = getelementptr inbounds nuw %"class.std::__uniq_ptr_impl", ptr %3, i32 0, i32 0
  %5 = call noundef nonnull align 8 dereferenceable(8) ptr @_ZSt3getILm0EJPN5ceres8internal24TrustRegionStepEvaluatorESt14default_deleteIS2_EEERKNSt13tuple_elementIXT_ESt5tupleIJDpT0_EEE4typeERKSA_(ptr noundef nonnull align 8 dereferenceable(8) %4) #6
  %6 = load ptr, ptr %5, align 8, !tbaa !155
  ret ptr %6
}

; Function Attrs: mustprogress nounwind uwtable
define linkonce_odr hidden noundef ptr @_ZNKSt10unique_ptrIN5ceres8internal24TrustRegionStepEvaluatorESt14default_deleteIS2_EE3getEv(ptr noundef nonnull align 8 dereferenceable(8) %0) #1 comdat align 2 {
  %2 = alloca ptr, align 8
  store ptr %0, ptr %2, align 8, !tbaa !151
  %3 = load ptr, ptr %2, align 8
  %4 = getelementptr inbounds nuw %"class.std::unique_ptr", ptr %3, i32 0, i32 0
  %5 = call noundef ptr @_ZNKSt15__uniq_ptr_implIN5ceres8internal24TrustRegionStepEvaluatorESt14default_deleteIS2_EE6_M_ptrEv(ptr noundef nonnull align 8 dereferenceable(8) %4) #6
  ret ptr %5
}

; Function Attrs: mustprogress nounwind uwtable
define linkonce_odr hidden noundef ptr @_ZNKSt10unique_ptrIN5ceres8internal24TrustRegionStepEvaluatorESt14default_deleteIS2_EEptEv(ptr noundef nonnull align 8 dereferenceable(8) %0) #1 comdat align 2 {
  %2 = alloca ptr, align 8
  store ptr %0, ptr %2, align 8, !tbaa !151
  %3 = load ptr, ptr %2, align 8
  %4 = call noundef ptr @_ZNKSt10unique_ptrIN5ceres8internal24TrustRegionStepEvaluatorESt14default_deleteIS2_EE3getEv(ptr noundef nonnull align 8 dereferenceable(8) %3) #6
  ret ptr %4
}

; Function Attrs: mustprogress uwtable
define hidden noundef zeroext i1 @_ZN5ceres8internal20TrustRegionMinimizer16IsStepSuccessfulEv(ptr noundef nonnull align 8 dereferenceable(792) %0) #3 align 2 {
  %2 = alloca ptr, align 8
  store ptr %0, ptr %2, align 8, !tbaa !14
  %3 = load ptr, ptr %2, align 8
  %4 = getelementptr inbounds nuw %"class.ceres::internal::TrustRegionMinimizer", ptr %3, i32 0, i32 7
  %5 = call noundef ptr @_ZNKSt10unique_ptrIN5ceres8internal24TrustRegionStepEvaluatorESt14default_deleteIS2_EEptEv(ptr noundef nonnull align 8 dereferenceable(8) %4) #6
  %6 = getelementptr inbounds nuw %"class.ceres::internal::TrustRegionMinimizer", ptr %3, i32 0, i32 31
  %7 = load double, ptr %6, align 8, !tbaa !97
  %8 = getelementptr inbounds nuw %"class.ceres::internal::TrustRegionMinimizer", ptr %3, i32 0, i32 30
  %9 = load double, ptr %8, align 8, !tbaa !137
  %10 = call noundef double @_ZNK5ceres8internal24TrustRegionStepEvaluator11StepQualityEdd(ptr noundef nonnull align 8 dereferenceable(60) %5, double noundef %7, double noundef %9)
  %11 = getelementptr inbounds nuw %"class.ceres::internal::TrustRegionMinimizer", ptr %3, i32 0, i32 12
  %12 = getelementptr inbounds nuw %"struct.ceres::IterationSummary", ptr %11, i32 0, i32 9
  store double %10, ptr %12, align 8, !tbaa !117
  %13 = getelementptr inbounds nuw %"class.ceres::internal::TrustRegionMinimizer", ptr %3, i32 0, i32 10
  %14 = load i8, ptr %13, align 2, !tbaa !131, !range !80, !noundef !81
  %15 = trunc i8 %14 to i1
  br i1 %15, label %24, label %16

16:                                               ; preds = %1
  %17 = getelementptr inbounds nuw %"class.ceres::internal::TrustRegionMinimizer", ptr %3, i32 0, i32 12
  %18 = getelementptr inbounds nuw %"struct.ceres::IterationSummary", ptr %17, i32 0, i32 9
  %19 = load double, ptr %18, align 8, !tbaa !117
  %20 = getelementptr inbounds nuw %"class.ceres::internal::TrustRegionMinimizer", ptr %3, i32 0, i32 1
  %21 = getelementptr inbounds nuw %"struct.ceres::internal::Minimizer::Options", ptr %20, i32 0, i32 8
  %22 = load double, ptr %21, align 8, !tbaa !229
  %23 = fcmp ogt double %19, %22
  br label %24

24:                                               ; preds = %16, %1
  %25 = phi i1 [ true, %1 ], [ %23, %16 ]
  ret i1 %25
}