; Function Attrs: mustprogress uwtable
define hidden noundef zeroext i1 @_ZN5ceres8internal20TrustRegionMinimizer16IsStepSuccessfulEv(ptr noundef nonnull align 8 captures(none) dereferenceable(792) initializes((464, 472)) %0) local_unnamed_addr #4 align 2 {
  %2 = getelementptr inbounds nuw i8, ptr %0, i64 400
  %3 = load ptr, ptr %2, align 8, !tbaa !72
  %4 = getelementptr inbounds nuw i8, ptr %0, i64 752
  %5 = load double, ptr %4, align 8, !tbaa !84
  %6 = getelementptr inbounds nuw i8, ptr %0, i64 744
  %7 = load double, ptr %6, align 8, !tbaa !85
  %8 = tail call noundef double @_ZNK5ceres8internal24TrustRegionStepEvaluator11StepQualityEdd(ptr noundef nonnull align 8 dereferenceable(60) %3, double noundef %5, double noundef %7)
  %9 = getelementptr inbounds nuw i8, ptr %0, i64 464
  store double %8, ptr %9, align 8, !tbaa !86
  %10 = getelementptr inbounds nuw i8, ptr %0, i64 410
  %11 = load i8, ptr %10, align 2, !tbaa !87, !range !66, !noundef !67
  %12 = trunc nuw i8 %11 to i1
  %13 = getelementptr inbounds nuw i8, ptr %0, i64 72
  %14 = load double, ptr %13, align 8
  %15 = fcmp ogt double %8, %14
  %16 = select i1 %12, i1 true, i1 %15
  ret i1 %16
}